target datalayout = "e-m:e-p270:32:32-p271:32:32-p272:64:64-i64:64-i128:128-f80:128-n8:16:32:64-S128"
target triple = "x86_64-pc-linux-gnu"

%struct.__va_list_tag = type { i32, i32, ptr, ptr }

; Function Attrs: nounwind uwtable
define i32 @stbiw__outfile(ptr noundef %0, i32 noundef %1, i32 noundef %2, i32 noundef %3, i32 noundef %4, i32 noundef %5, i32 noundef %6, ptr noundef %7, i32 noundef %8, i32 noundef %9, ptr noundef %10, ...) #0 {
  %12 = alloca i32, align 4
  %13 = alloca ptr, align 8
  %14 = alloca i32, align 4
  %15 = alloca i32, align 4
  %16 = alloca i32, align 4
  %17 = alloca i32, align 4
  %18 = alloca i32, align 4
  %19 = alloca i32, align 4
  %20 = alloca ptr, align 8
  %21 = alloca i32, align 4
  %22 = alloca i32, align 4
  %23 = alloca ptr, align 8
  %24 = alloca [1 x %struct.__va_list_tag], align 16
  store ptr %0, ptr %13, align 8, !tbaa !7
  store i32 %1, ptr %14, align 4, !tbaa !3
  store i32 %2, ptr %15, align 4, !tbaa !3
  store i32 %3, ptr %16, align 4, !tbaa !3
  store i32 %4, ptr %17, align 4, !tbaa !3
  store i32 %5, ptr %18, align 4, !tbaa !3
  store i32 %6, ptr %19, align 4, !tbaa !3
  store ptr %7, ptr %20, align 8, !tbaa !7
  store i32 %8, ptr %21, align 4, !tbaa !3
  store i32 %9, ptr %22, align 4, !tbaa !3
  store ptr %10, ptr %23, align 8, !tbaa !12
  %25 = load i32, ptr %17, align 4, !tbaa !3
  %26 = icmp slt i32 %25, 0
  br i1 %26, label %30, label %27

27:                                               ; preds = %11
  %28 = load i32, ptr %16, align 4, !tbaa !3
  %29 = icmp slt i32 %28, 0
  br i1 %29, label %30, label %31

30:                                               ; preds = %27, %11
  store i32 0, ptr %12, align 4
  br label %47

31:                                               ; preds = %27
  call void @llvm.lifetime.start.p0(i64 24, ptr %24) #11
  %32 = getelementptr inbounds [1 x %struct.__va_list_tag], ptr %24, i64 0, i64 0
  call void @llvm.va_start.p0(ptr %32)
  %33 = load ptr, ptr %13, align 8, !tbaa !7
  %34 = load ptr, ptr %23, align 8, !tbaa !12
  %35 = getelementptr inbounds [1 x %struct.__va_list_tag], ptr %24, i64 0, i64 0
  call void @stbiw__writefv(ptr noundef %33, ptr noundef %34, ptr noundef %35)
  %36 = getelementptr inbounds [1 x %struct.__va_list_tag], ptr %24, i64 0, i64 0
  call void @llvm.va_end.p0(ptr %36)
  %37 = load ptr, ptr %13, align 8, !tbaa !7
  %38 = load i32, ptr %14, align 4, !tbaa !3
  %39 = load i32, ptr %15, align 4, !tbaa !3
  %40 = load i32, ptr %16, align 4, !tbaa !3
  %41 = load i32, ptr %17, align 4, !tbaa !3
  %42 = load i32, ptr %18, align 4, !tbaa !3
  %43 = load ptr, ptr %20, align 8, !tbaa !7
  %44 = load i32, ptr %21, align 4, !tbaa !3
  %45 = load i32, ptr %22, align 4, !tbaa !3
  %46 = load i32, ptr %19, align 4, !tbaa !3
  call void @stbiw__write_pixels(ptr noundef %37, i32 noundef %38, i32 noundef %39, i32 noundef %40, i32 noundef %41, i32 noundef %42, ptr noundef %43, i32 noundef %44, i32 noundef %45, i32 noundef %46)
  store i32 1, ptr %12, align 4
  call void @llvm.lifetime.end.p0(i64 24, ptr %24) #11
  br label %47

47:                                               ; preds = %31, %30
  %48 = load i32, ptr %12, align 4
  ret i32 %48
}