; Function Attrs: nounwind uwtable
define range(i32 0, 2) i32 @stbiw__outfile(ptr noundef %0, i32 noundef %1, i32 noundef %2, i32 noundef %3, i32 noundef %4, i32 noundef %5, i32 noundef %6, ptr noundef readonly captures(none) %7, i32 noundef %8, i32 noundef %9, ptr noundef readonly captures(none) %10, ...) local_unnamed_addr #5 {
  %12 = alloca [1 x %struct.__va_list_tag], align 16
  %13 = or i32 %4, %3
  %or.cond.not = icmp sgt i32 %13, -1
  br i1 %or.cond.not, label %14, label %15

14:                                               ; preds = %11
  call void @llvm.lifetime.start.p0(i64 24, ptr nonnull %12) #26
  call void @llvm.va_start.p0(ptr nonnull %12)
  call void @stbiw__writefv(ptr noundef %0, ptr noundef %10, ptr noundef nonnull %12)
  call void @llvm.va_end.p0(ptr nonnull %12)
  call void @stbiw__write_pixels(ptr noundef %0, i32 noundef %1, i32 noundef %2, i32 noundef %3, i32 noundef %4, i32 noundef %5, ptr noundef %7, i32 noundef %8, i32 noundef %9, i32 noundef %6)
  call void @llvm.lifetime.end.p0(i64 24, ptr nonnull %12) #26
  br label %15

15:                                               ; preds = %11, %14
  %.0 = phi i32 [ 1, %14 ], [ 0, %11 ]
  ret i32 %.0
}